target datalayout = "e-m:e-p270:32:32-p271:32:32-p272:64:64-i64:64-i128:128-f80:128-n8:16:32:64-S128"
target triple = "x86_64-pc-linux-gnu"

%struct.tm = type { i32, i32, i32, i32, i32, i32, i32, i32, i32, i64, ptr }

@_ZL11currentYear = internal global i32 -1, align 4

; Function Attrs: mustprogress nounwind uwtable
define i32 @getCurrentYear() #0 {
  %1 = alloca i64, align 8
  %2 = alloca ptr, align 8
  %3 = load i32, ptr @_ZL11currentYear, align 4, !tbaa !22
  %4 = icmp eq i32 %3, -1
  br i1 %4, label %5, label %12

5:                                                ; preds = %0
  call void @llvm.lifetime.start.p0(i64 8, ptr %1) #14
  %6 = call i64 @time(ptr noundef null) #14
  store i64 %6, ptr %1, align 8, !tbaa !38
  call void @llvm.lifetime.start.p0(i64 8, ptr %2) #14
  %7 = call ptr @gmtime(ptr noundef %1) #14
  store ptr %7, ptr %2, align 8, !tbaa !40
  %8 = load ptr, ptr %2, align 8, !tbaa !40
  %9 = getelementptr inbounds nuw %struct.tm, ptr %8, i32 0, i32 5
  %10 = load i32, ptr %9, align 4, !tbaa !42
  %11 = add nsw i32 1900, %10
  store i32 %11, ptr @_ZL11currentYear, align 4, !tbaa !22
  call void @llvm.lifetime.end.p0(i64 8, ptr %2) #14
  call void @llvm.lifetime.end.p0(i64 8, ptr %1) #14
  br label %12

12:                                               ; preds = %5, %0
  %13 = load i32, ptr @_ZL11currentYear, align 4, !tbaa !22
  ret i32 %13
}