; Function Attrs: mustprogress nounwind uwtable
define range(i32 -2147481748, -2147483648) i32 @getCurrentYear() local_unnamed_addr #0 {
  %1 = alloca i64, align 8
  %2 = load i32, ptr @_ZL11currentYear, align 4, !tbaa !17
  %3 = icmp eq i32 %2, -1
  br i1 %3, label %4, label %10

4:                                                ; preds = %0
  call void @llvm.lifetime.start.p0(i64 8, ptr nonnull %1) #23
  %5 = tail call i64 @time(ptr noundef null) #23
  store i64 %5, ptr %1, align 8, !tbaa !21
  %6 = call ptr @gmtime(ptr noundef nonnull %1) #23
  %7 = getelementptr inbounds nuw i8, ptr %6, i64 20
  %8 = load i32, ptr %7, align 4, !tbaa !23
  %9 = add nsw i32 %8, 1900
  store i32 %9, ptr @_ZL11currentYear, align 4, !tbaa !17
  call void @llvm.lifetime.end.p0(i64 8, ptr nonnull %1) #23
  br label %10

10:                                               ; preds = %4, %0
  %11 = phi i32 [ %9, %4 ], [ %2, %0 ]
  ret i32 %11
}